target datalayout = "e-m:e-p270:32:32-p271:32:32-p272:64:64-i64:64-i128:128-f80:128-n8:16:32:64-S128"
target triple = "x86_64-pc-linux-gnu"

%"class.llvm::yaml::IO" = type { ptr, ptr }
%"class.llvm::yaml::document_iterator" = type { ptr }
%"class.llvm::yaml::Input" = type <{ %"class.llvm::yaml::IO", %"class.llvm::SourceMgr", %"class.std::unique_ptr", ptr, %"class.std::error_code", %"class.llvm::BumpPtrAllocatorImpl", %"class.llvm::SpecificBumpPtrAllocator", %"class.llvm::SpecificBumpPtrAllocator.13", %"class.llvm::SpecificBumpPtrAllocator.14", %"class.llvm::SpecificBumpPtrAllocator.15", %"class.llvm::yaml::document_iterator", %"class.llvm::BitVector", ptr, i8, i8, [6 x i8] }>
%"class.llvm::SourceMgr" = type { %"class.std::vector", %"class.std::vector.0", ptr, ptr }
%"class.std::vector" = type { %"struct.std::_Vector_base" }
%"struct.std::_Vector_base" = type { %"struct.std::_Vector_base<llvm::SourceMgr::SrcBuffer, std::allocator<llvm::SourceMgr::SrcBuffer>>::_Vector_impl" }
%"struct.std::_Vector_base<llvm::SourceMgr::SrcBuffer, std::allocator<llvm::SourceMgr::SrcBuffer>>::_Vector_impl" = type { %"struct.std::_Vector_base<llvm::SourceMgr::SrcBuffer, std::allocator<llvm::SourceMgr::SrcBuffer>>::_Vector_impl_data" }
%"struct.std::_Vector_base<llvm::SourceMgr::SrcBuffer, std::allocator<llvm::SourceMgr::SrcBuffer>>::_Vector_impl_data" = type { ptr, ptr, ptr }
%"class.std::vector.0" = type { %"struct.std::_Vector_base.1" }
%"struct.std::_Vector_base.1" = type { %"struct.std::_Vector_base<std::__cxx11::basic_string<char>, std::allocator<std::__cxx11::basic_string<char>>>::_Vector_impl" }
%"struct.std::_Vector_base<std::__cxx11::basic_string<char>, std::allocator<std::__cxx11::basic_string<char>>>::_Vector_impl" = type { %"struct.std::_Vector_base<std::__cxx11::basic_string<char>, std::allocator<std::__cxx11::basic_string<char>>>::_Vector_impl_data" }
%"struct.std::_Vector_base<std::__cxx11::basic_string<char>, std::allocator<std::__cxx11::basic_string<char>>>::_Vector_impl_data" = type { ptr, ptr, ptr }
%"class.std::unique_ptr" = type { %"struct.std::__uniq_ptr_data" }
%"struct.std::__uniq_ptr_data" = type { %"class.std::__uniq_ptr_impl" }
%"class.std::__uniq_ptr_impl" = type { %"class.std::tuple" }
%"class.std::tuple" = type { %"struct.std::_Tuple_impl" }
%"struct.std::_Tuple_impl" = type { %"struct.std::_Head_base.6" }
%"struct.std::_Head_base.6" = type { ptr }
%"class.std::error_code" = type { i32, ptr }
%"class.llvm::BumpPtrAllocatorImpl" = type { ptr, ptr, %"class.llvm::SmallVector", %"class.llvm::SmallVector.8", i64, i64 }
%"class.llvm::SmallVector" = type { %"class.llvm::SmallVectorImpl", %"struct.llvm::SmallVectorStorage" }
%"class.llvm::SmallVectorImpl" = type { %"class.llvm::SmallVectorTemplateBase" }
%"class.llvm::SmallVectorTemplateBase" = type { %"class.llvm::SmallVectorTemplateCommon" }
%"class.llvm::SmallVectorTemplateCommon" = type { %"class.llvm::SmallVectorBase" }
%"class.llvm::SmallVectorBase" = type { ptr, i32, i32 }
%"struct.llvm::SmallVectorStorage" = type { [32 x i8] }
%"class.llvm::SmallVector.8" = type { %"class.llvm::SmallVectorImpl.9" }
%"class.llvm::SmallVectorImpl.9" = type { %"class.llvm::SmallVectorTemplateBase.10" }
%"class.llvm::SmallVectorTemplateBase.10" = type { %"class.llvm::SmallVectorTemplateCommon.11" }
%"class.llvm::SmallVectorTemplateCommon.11" = type { %"class.llvm::SmallVectorBase" }
%"class.llvm::SpecificBumpPtrAllocator" = type { %"class.llvm::BumpPtrAllocatorImpl" }
%"class.llvm::SpecificBumpPtrAllocator.13" = type { %"class.llvm::BumpPtrAllocatorImpl" }
%"class.llvm::SpecificBumpPtrAllocator.14" = type { %"class.llvm::BumpPtrAllocatorImpl" }
%"class.llvm::SpecificBumpPtrAllocator.15" = type { %"class.llvm::BumpPtrAllocatorImpl" }
%"class.llvm::BitVector" = type <{ %"class.llvm::SmallVector.16", i32, [4 x i8] }>
%"class.llvm::SmallVector.16" = type { %"class.llvm::SmallVectorImpl.17", %"struct.llvm::SmallVectorStorage.20" }
%"class.llvm::SmallVectorImpl.17" = type { %"class.llvm::SmallVectorTemplateBase.18" }
%"class.llvm::SmallVectorTemplateBase.18" = type { %"class.llvm::SmallVectorTemplateCommon.19" }
%"class.llvm::SmallVectorTemplateCommon.19" = type { %"class.llvm::SmallVectorBase" }
%"struct.llvm::SmallVectorStorage.20" = type { [48 x i8] }
%"class.llvm::yaml::Input::HNode" = type { ptr }

; Function Attrs: mustprogress nounwind uwtable
define dso_local noundef ptr @_ZNK4llvm4yaml5Input14getCurrentNodeEv(ptr noundef nonnull align 8 dereferenceable(682) %0) #0 align 2 {
  %2 = alloca ptr, align 8
  store ptr %0, ptr %2, align 8
  %3 = load ptr, ptr %2, align 8
  %4 = getelementptr inbounds nuw %"class.llvm::yaml::Input", ptr %3, i32 0, i32 12
  %5 = load ptr, ptr %4, align 8
  %6 = icmp ne ptr %5, null
  br i1 %6, label %7, label %12

7:                                                ; preds = %1
  %8 = getelementptr inbounds nuw %"class.llvm::yaml::Input", ptr %3, i32 0, i32 12
  %9 = load ptr, ptr %8, align 8
  %10 = getelementptr inbounds nuw %"class.llvm::yaml::Input::HNode", ptr %9, i32 0, i32 0
  %11 = load ptr, ptr %10, align 8
  br label %13

12:                                               ; preds = %1
  br label %13

13:                                               ; preds = %12, %7
  %14 = phi ptr [ %11, %7 ], [ null, %12 ]
  ret ptr %14
}