; Function Attrs: mustprogress nofree norecurse nosync nounwind willreturn memory(read, inaccessiblemem: none) uwtable
define dso_local noundef ptr @_ZNK4llvm4yaml5Input14getCurrentNodeEv(ptr noundef nonnull readonly align 8 captures(none) dereferenceable(682) %0) local_unnamed_addr #11 align 2 {
  %2 = getelementptr inbounds nuw i8, ptr %0, i64 672
  %3 = load ptr, ptr %2, align 8
  %.not = icmp eq ptr %3, null
  br i1 %.not, label %6, label %4

4:                                                ; preds = %1
  %5 = load ptr, ptr %3, align 8
  br label %6

6:                                                ; preds = %1, %4
  %7 = phi ptr [ %5, %4 ], [ null, %1 ]
  ret ptr %7
}